target datalayout = "e-m:e-p270:32:32-p271:32:32-p272:64:64-i64:64-i128:128-f80:128-n8:16:32:64-S128"
target triple = "x86_64-unknown-linux-gnu"

%struct.KeyValue = type { i32, %union.anon.2 }
%union.anon.2 = type { %struct.IntWrapper }
%struct.IntWrapper = type { i64 }
%struct.QKeyCodeWrapper = type { i32 }

; Function Attrs: nounwind sspstrong uwtable
define dso_local void @qemu_input_event_send_key_qcode(ptr noundef %src, i32 noundef %q, i1 noundef zeroext %down) #0 {
entry:
  %src.addr = alloca ptr, align 8
  %q.addr = alloca i32, align 4
  %down.addr = alloca i8, align 1
  %key = alloca ptr, align 8
  store ptr %src, ptr %src.addr, align 8
  store i32 %q, ptr %q.addr, align 4
  %frombool = zext i1 %down to i8
  store i8 %frombool, ptr %down.addr, align 1
  %call = call noalias ptr @g_malloc0_n(i64 noundef 1, i64 noundef 16) #7
  store ptr %call, ptr %key, align 8
  %0 = load ptr, ptr %key, align 8
  %type = getelementptr inbounds %struct.KeyValue, ptr %0, i32 0, i32 0
  store i32 1, ptr %type, align 8
  %1 = load i32, ptr %q.addr, align 4
  %2 = load ptr, ptr %key, align 8
  %u = getelementptr inbounds %struct.KeyValue, ptr %2, i32 0, i32 1
  %data = getelementptr inbounds %struct.QKeyCodeWrapper, ptr %u, i32 0, i32 0
  store i32 %1, ptr %data, align 8
  %3 = load ptr, ptr %src.addr, align 8
  %4 = load ptr, ptr %key, align 8
  %5 = load i8, ptr %down.addr, align 1
  %tobool = trunc i8 %5 to i1
  call void @qemu_input_event_send_key(ptr noundef %3, ptr noundef %4, i1 noundef zeroext %tobool)
  ret void
}