; Function Attrs: nounwind sspstrong uwtable
define dso_local void @qemu_input_event_send_key_qcode(ptr noundef %src, i32 noundef %q, i1 noundef zeroext %down) local_unnamed_addr #0 {
entry:
  %call = tail call noalias dereferenceable_or_null(16) ptr @g_malloc0_n(i64 noundef 1, i64 noundef 16) #11
  store i32 1, ptr %call, align 8
  %u = getelementptr inbounds nuw i8, ptr %call, i64 8
  store i32 %q, ptr %u, align 8
  tail call void @qemu_input_event_send_key(ptr noundef %src, ptr noundef nonnull %call, i1 noundef zeroext %down)
  ret void
}